; ModuleID = '46/310.c'
source_filename = "46/310.c"
target datalayout = "e-m:e-p270:32:32-p271:32:32-p272:64:64-i64:64-f80:128-n8:16:32:64-S128"
target triple = "x86_64-pc-linux-gnu"

@.str = private unnamed_addr constant [3 x i8] c"%d\00", align 1
@.str.1 = private unnamed_addr constant [4 x i8] c"%d\0A\00", align 1

; Function Attrs: noinline nounwind uwtable
define dso_local i32 @main() #0 {
  %1 = alloca i32, align 4
  %2 = alloca i32, align 4
  %3 = alloca i32, align 4
  %4 = alloca [100 x [100 x i32]], align 16
  %5 = alloca i32, align 4
  %6 = alloca i32, align 4
  %7 = alloca i32, align 4
  %8 = alloca i32, align 4
  store i32 0, i32* %1, align 4
  %9 = call i32 (i8*, ...) @__isoc99_scanf(i8* getelementptr inbounds ([3 x i8], [3 x i8]* @.str, i64 0, i64 0), i32* %2)
  %10 = call i32 (i8*, ...) @__isoc99_scanf(i8* getelementptr inbounds ([3 x i8], [3 x i8]* @.str, i64 0, i64 0), i32* %3)
  store i32 0, i32* %5, align 4
  br label %11

11:                                               ; preds = %32, %0
  %12 = load i32, i32* %5, align 4
  %13 = load i32, i32* %2, align 4
  %14 = icmp slt i32 %12, %13
  br i1 %14, label %15, label %35

15:                                               ; preds = %11
  store i32 0, i32* %6, align 4
  br label %16

16:                                               ; preds = %28, %15
  %17 = load i32, i32* %6, align 4
  %18 = load i32, i32* %3, align 4
  %19 = icmp slt i32 %17, %18
  br i1 %19, label %20, label %31

20:                                               ; preds = %16
  %21 = load i32, i32* %5, align 4
  %22 = sext i32 %21 to i64
  %23 = getelementptr inbounds [100 x [100 x i32]], [100 x [100 x i32]]* %4, i64 0, i64 %22
  %24 = load i32, i32* %6, align 4
  %25 = sext i32 %24 to i64
  %26 = getelementptr inbounds [100 x i32], [100 x i32]* %23, i64 0, i64 %25
  %27 = call i32 (i8*, ...) @__isoc99_scanf(i8* getelementptr inbounds ([3 x i8], [3 x i8]* @.str, i64 0, i64 0), i32* %26)
  br label %28

28:                                               ; preds = %20
  %29 = load i32, i32* %6, align 4
  %30 = add nsw i32 %29, 1
  store i32 %30, i32* %6, align 4
  br label %16

31:                                               ; preds = %16
  br label %32

32:                                               ; preds = %31
  %33 = load i32, i32* %5, align 4
  %34 = add nsw i32 %33, 1
  store i32 %34, i32* %5, align 4
  br label %11

35:                                               ; preds = %11
  store i32 0, i32* %5, align 4
  store i32 0, i32* %6, align 4
  store i32 0, i32* %7, align 4
  store i32 0, i32* %8, align 4
  br label %36

36:                                               ; preds = %201, %35
  %37 = load i32, i32* %7, align 4
  %38 = load i32, i32* %2, align 4
  %39 = icmp slt i32 %37, %38
  br i1 %39, label %40, label %44

40:                                               ; preds = %36
  %41 = load i32, i32* %8, align 4
  %42 = load i32, i32* %3, align 4
  %43 = icmp slt i32 %41, %42
  br label %44

44:                                               ; preds = %40, %36
  %45 = phi i1 [ false, %36 ], [ %43, %40 ]
  br i1 %45, label %46, label %206

46:                                               ; preds = %44
  %47 = load i32, i32* %8, align 4
  store i32 %47, i32* %6, align 4
  br label %48

48:                                               ; preds = %80, %46
  %49 = load i32, i32* %6, align 4
  %50 = load i32, i32* %3, align 4
  %51 = load i32, i32* %8, align 4
  %52 = sub nsw i32 %50, %51
  %53 = icmp slt i32 %49, %52
  br i1 %53, label %54, label %83

54:                                               ; preds = %48
  %55 = load i32, i32* %5, align 4
  %56 = sext i32 %55 to i64
  %57 = getelementptr inbounds [100 x [100 x i32]], [100 x [100 x i32]]* %4, i64 0, i64 %56
  %58 = load i32, i32* %6, align 4
  %59 = sext i32 %58 to i64
  %60 = getelementptr inbounds [100 x i32], [100 x i32]* %57, i64 0, i64 %59
  %61 = load i32, i32* %60, align 4
  %62 = icmp ne i32 %61, 0
  br i1 %62, label %63, label %78

63:                                               ; preds = %54
  %64 = load i32, i32* %5, align 4
  %65 = sext i32 %64 to i64
  %66 = getelementptr inbounds [100 x [100 x i32]], [100 x [100 x i32]]* %4, i64 0, i64 %65
  %67 = load i32, i32* %6, align 4
  %68 = sext i32 %67 to i64
  %69 = getelementptr inbounds [100 x i32], [100 x i32]* %66, i64 0, i64 %68
  %70 = load i32, i32* %69, align 4
  %71 = call i32 (i8*, ...) @printf(i8* getelementptr inbounds ([4 x i8], [4 x i8]* @.str.1, i64 0, i64 0), i32 %70)
  %72 = load i32, i32* %5, align 4
  %73 = sext i32 %72 to i64
  %74 = getelementptr inbounds [100 x [100 x i32]], [100 x [100 x i32]]* %4, i64 0, i64 %73
  %75 = load i32, i32* %6, align 4
  %76 = sext i32 %75 to i64
  %77 = getelementptr inbounds [100 x i32], [100 x i32]* %74, i64 0, i64 %76
  store i32 0, i32* %77, align 4
  br label %79

78:                                               ; preds = %54
  store i32 0, i32* %1, align 4
  br label %207

79:                                               ; preds = %63
  br label %80

80:                                               ; preds = %79
  %81 = load i32, i32* %6, align 4
  %82 = add nsw i32 %81, 1
  store i32 %82, i32* %6, align 4
  br label %48

83:                                               ; preds = %48
  %84 = load i32, i32* %6, align 4
  %85 = add nsw i32 %84, -1
  store i32 %85, i32* %6, align 4
  %86 = load i32, i32* %7, align 4
  %87 = add nsw i32 1, %86
  store i32 %87, i32* %5, align 4
  br label %88

88:                                               ; preds = %120, %83
  %89 = load i32, i32* %5, align 4
  %90 = load i32, i32* %2, align 4
  %91 = load i32, i32* %7, align 4
  %92 = sub nsw i32 %90, %91
  %93 = icmp slt i32 %89, %92
  br i1 %93, label %94, label %123

94:                                               ; preds = %88
  %95 = load i32, i32* %5, align 4
  %96 = sext i32 %95 to i64
  %97 = getelementptr inbounds [100 x [100 x i32]], [100 x [100 x i32]]* %4, i64 0, i64 %96
  %98 = load i32, i32* %6, align 4
  %99 = sext i32 %98 to i64
  %100 = getelementptr inbounds [100 x i32], [100 x i32]* %97, i64 0, i64 %99
  %101 = load i32, i32* %100, align 4
  %102 = icmp ne i32 %101, 0
  br i1 %102, label %103, label %118

103:                                              ; preds = %94
  %104 = load i32, i32* %5, align 4
  %105 = sext i32 %104 to i64
  %106 = getelementptr inbounds [100 x [100 x i32]], [100 x [100 x i32]]* %4, i64 0, i64 %105
  %107 = load i32, i32* %6, align 4
  %108 = sext i32 %107 to i64
  %109 = getelementptr inbounds [100 x i32], [100 x i32]* %106, i64 0, i64 %108
  %110 = load i32, i32* %109, align 4
  %111 = call i32 (i8*, ...) @printf(i8* getelementptr inbounds ([4 x i8], [4 x i8]* @.str.1, i64 0, i64 0), i32 %110)
  %112 = load i32, i32* %5, align 4
  %113 = sext i32 %112 to i64
  %114 = getelementptr inbounds [100 x [100 x i32]], [100 x [100 x i32]]* %4, i64 0, i64 %113
  %115 = load i32, i32* %6, align 4
  %116 = sext i32 %115 to i64
  %117 = getelementptr inbounds [100 x i32], [100 x i32]* %114, i64 0, i64 %116
  store i32 0, i32* %117, align 4
  br label %119

118:                                              ; preds = %94
  store i32 0, i32* %1, align 4
  br label %207

119:                                              ; preds = %103
  br label %120

120:                                              ; preds = %119
  %121 = load i32, i32* %5, align 4
  %122 = add nsw i32 %121, 1
  store i32 %122, i32* %5, align 4
  br label %88

123:                                              ; preds = %88
  %124 = load i32, i32* %5, align 4
  %125 = add nsw i32 %124, -1
  store i32 %125, i32* %5, align 4
  %126 = load i32, i32* %6, align 4
  %127 = sub nsw i32 %126, 1
  store i32 %127, i32* %6, align 4
  br label %128

128:                                              ; preds = %158, %123
  %129 = load i32, i32* %6, align 4
  %130 = load i32, i32* %8, align 4
  %131 = icmp sge i32 %129, %130
  br i1 %131, label %132, label %161

132:                                              ; preds = %128
  %133 = load i32, i32* %5, align 4
  %134 = sext i32 %133 to i64
  %135 = getelementptr inbounds [100 x [100 x i32]], [100 x [100 x i32]]* %4, i64 0, i64 %134
  %136 = load i32, i32* %6, align 4
  %137 = sext i32 %136 to i64
  %138 = getelementptr inbounds [100 x i32], [100 x i32]* %135, i64 0, i64 %137
  %139 = load i32, i32* %138, align 4
  %140 = icmp ne i32 %139, 0
  br i1 %140, label %141, label %156

141:                                              ; preds = %132
  %142 = load i32, i32* %5, align 4
  %143 = sext i32 %142 to i64
  %144 = getelementptr inbounds [100 x [100 x i32]], [100 x [100 x i32]]* %4, i64 0, i64 %143
  %145 = load i32, i32* %6, align 4
  %146 = sext i32 %145 to i64
  %147 = getelementptr inbounds [100 x i32], [100 x i32]* %144, i64 0, i64 %146
  %148 = load i32, i32* %147, align 4
  %149 = call i32 (i8*, ...) @printf(i8* getelementptr inbounds ([4 x i8], [4 x i8]* @.str.1, i64 0, i64 0), i32 %148)
  %150 = load i32, i32* %5, align 4
  %151 = sext i32 %150 to i64
  %152 = getelementptr inbounds [100 x [100 x i32]], [100 x [100 x i32]]* %4, i64 0, i64 %151
  %153 = load i32, i32* %6, align 4
  %154 = sext i32 %153 to i64
  %155 = getelementptr inbounds [100 x i32], [100 x i32]* %152, i64 0, i64 %154
  store i32 0, i32* %155, align 4
  br label %157

156:                                              ; preds = %132
  store i32 0, i32* %1, align 4
  br label %207

157:                                              ; preds = %141
  br label %158

158:                                              ; preds = %157
  %159 = load i32, i32* %6, align 4
  %160 = add nsw i32 %159, -1
  store i32 %160, i32* %6, align 4
  br label %128

161:                                              ; preds = %128
  %162 = load i32, i32* %6, align 4
  %163 = add nsw i32 %162, 1
  store i32 %163, i32* %6, align 4
  %164 = load i32, i32* %7, align 4
  %165 = add nsw i32 %164, 1
  store i32 %165, i32* %7, align 4
  %166 = load i32, i32* %5, align 4
  %167 = sub nsw i32 %166, 1
  store i32 %167, i32* %5, align 4
  br label %168

168:                                              ; preds = %198, %161
  %169 = load i32, i32* %5, align 4
  %170 = load i32, i32* %7, align 4
  %171 = icmp sge i32 %169, %170
  br i1 %171, label %172, label %201

172:                                              ; preds = %168
  %173 = load i32, i32* %5, align 4
  %174 = sext i32 %173 to i64
  %175 = getelementptr inbounds [100 x [100 x i32]], [100 x [100 x i32]]* %4, i64 0, i64 %174
  %176 = load i32, i32* %6, align 4
  %177 = sext i32 %176 to i64
  %178 = getelementptr inbounds [100 x i32], [100 x i32]* %175, i64 0, i64 %177
  %179 = load i32, i32* %178, align 4
  %180 = icmp ne i32 %179, 0
  br i1 %180, label %181, label %196

181:                                              ; preds = %172
  %182 = load i32, i32* %5, align 4
  %183 = sext i32 %182 to i64
  %184 = getelementptr inbounds [100 x [100 x i32]], [100 x [100 x i32]]* %4, i64 0, i64 %183
  %185 = load i32, i32* %6, align 4
  %186 = sext i32 %185 to i64
  %187 = getelementptr inbounds [100 x i32], [100 x i32]* %184, i64 0, i64 %186
  %188 = load i32, i32* %187, align 4
  %189 = call i32 (i8*, ...) @printf(i8* getelementptr inbounds ([4 x i8], [4 x i8]* @.str.1, i64 0, i64 0), i32 %188)
  %190 = load i32, i32* %5, align 4
  %191 = sext i32 %190 to i64
  %192 = getelementptr inbounds [100 x [100 x i32]], [100 x [100 x i32]]* %4, i64 0, i64 %191
  %193 = load i32, i32* %6, align 4
  %194 = sext i32 %193 to i64
  %195 = getelementptr inbounds [100 x i32], [100 x i32]* %192, i64 0, i64 %194
  store i32 0, i32* %195, align 4
  br label %197

196:                                              ; preds = %172
  store i32 0, i32* %1, align 4
  br label %207

197:                                              ; preds = %181
  br label %198

198:                                              ; preds = %197
  %199 = load i32, i32* %5, align 4
  %200 = add nsw i32 %199, -1
  store i32 %200, i32* %5, align 4
  br label %168

201:                                              ; preds = %168
  %202 = load i32, i32* %5, align 4
  %203 = add nsw i32 %202, 1
  store i32 %203, i32* %5, align 4
  %204 = load i32, i32* %8, align 4
  %205 = add nsw i32 %204, 1
  store i32 %205, i32* %8, align 4
  br label %36

206:                                              ; preds = %44
  store i32 0, i32* %1, align 4
  br label %207

207:                                              ; preds = %206, %196, %156, %118, %78
  %208 = load i32, i32* %1, align 4
  ret i32 %208
}

declare dso_local i32 @__isoc99_scanf(i8*, ...) #1

declare dso_local i32 @printf(i8*, ...) #1


!llvm.module.flags = !{!0}
!llvm.ident = !{!1}

!0 = !{i32 1, !"wchar_size", i32 4}
!1 = !{!"clang version 10.0.0-4ubuntu1 "}
